target datalayout = "e-m:e-p270:32:32-p271:32:32-p272:64:64-i64:64-i128:128-f80:128-n8:16:32:64-S128"
target triple = "x86_64-pc-linux-gnu"

%struct._gssapi_oid_value = type { ptr, i32, ptr, ptr, ptr }

@gssapi_oids = internal global ptr null, align 8

; Function Attrs: null_pointer_is_valid sspstrong uwtable
define hidden void @gssapi_init_oid(ptr noundef %0, i32 noundef %1, i32 noundef %2, ptr noundef %3, ptr noundef %4, ptr noundef %5) #0 {
  %7 = alloca ptr, align 8
  %8 = alloca i32, align 4
  %9 = alloca i32, align 4
  %10 = alloca ptr, align 8
  %11 = alloca ptr, align 8
  %12 = alloca ptr, align 8
  %13 = alloca ptr, align 8
  %14 = alloca ptr, align 8
  store ptr %0, ptr %7, align 8
  store i32 %1, ptr %8, align 4
  store i32 %2, ptr %9, align 4
  store ptr %3, ptr %10, align 8
  store ptr %4, ptr %11, align 8
  store ptr %5, ptr %12, align 8
  call void @llvm.lifetime.start.p0(i64 8, ptr %13) #14
  %15 = load ptr, ptr %7, align 8
  %16 = call noalias ptr @g_strdup(ptr noundef %15)
  store ptr %16, ptr %13, align 8
  call void @llvm.lifetime.start.p0(i64 8, ptr %14) #14
  %17 = call noalias ptr @g_malloc(i64 noundef 40) #15
  store ptr %17, ptr %14, align 8
  %18 = load i32, ptr %8, align 4
  %19 = call ptr @find_protocol_by_id(i32 noundef %18)
  %20 = load ptr, ptr %14, align 8
  %21 = getelementptr inbounds nuw %struct._gssapi_oid_value, ptr %20, i32 0, i32 0
  store ptr %19, ptr %21, align 8
  %22 = load i32, ptr %9, align 4
  %23 = load ptr, ptr %14, align 8
  %24 = getelementptr inbounds nuw %struct._gssapi_oid_value, ptr %23, i32 0, i32 1
  store i32 %22, ptr %24, align 8
  %25 = load ptr, ptr %10, align 8
  %26 = load ptr, ptr %14, align 8
  %27 = getelementptr inbounds nuw %struct._gssapi_oid_value, ptr %26, i32 0, i32 2
  store ptr %25, ptr %27, align 8
  %28 = load ptr, ptr %11, align 8
  %29 = load ptr, ptr %14, align 8
  %30 = getelementptr inbounds nuw %struct._gssapi_oid_value, ptr %29, i32 0, i32 3
  store ptr %28, ptr %30, align 8
  %31 = load ptr, ptr %12, align 8
  %32 = load ptr, ptr %14, align 8
  %33 = getelementptr inbounds nuw %struct._gssapi_oid_value, ptr %32, i32 0, i32 4
  store ptr %31, ptr %33, align 8
  %34 = load ptr, ptr @gssapi_oids, align 8
  %35 = load ptr, ptr %13, align 8
  %36 = load ptr, ptr %14, align 8
  %37 = call i32 @g_hash_table_insert(ptr noundef %34, ptr noundef %35, ptr noundef %36)
  %38 = load ptr, ptr %13, align 8
  %39 = load ptr, ptr %10, align 8
  %40 = load i32, ptr %8, align 4
  %41 = load ptr, ptr %12, align 8
  call void @register_ber_oid_dissector_handle(ptr noundef %38, ptr noundef %39, i32 noundef %40, ptr noundef %41)
  call void @llvm.lifetime.end.p0(i64 8, ptr %14) #14
  call void @llvm.lifetime.end.p0(i64 8, ptr %13) #14
  ret void
}