; Function Attrs: null_pointer_is_valid sspstrong uwtable
define hidden void @gssapi_init_oid(ptr noundef %0, i32 noundef %1, i32 noundef %2, ptr noundef %3, ptr noundef %4, ptr noundef %5) local_unnamed_addr #0 {
  %7 = tail call noalias ptr @g_strdup(ptr noundef %0)
  %8 = tail call noalias dereferenceable_or_null(40) ptr @g_malloc(i64 noundef 40) #12
  %9 = tail call ptr @find_protocol_by_id(i32 noundef %1)
  store ptr %9, ptr %8, align 8
  %10 = getelementptr inbounds nuw i8, ptr %8, i64 8
  store i32 %2, ptr %10, align 8
  %11 = getelementptr inbounds nuw i8, ptr %8, i64 16
  store ptr %3, ptr %11, align 8
  %12 = getelementptr inbounds nuw i8, ptr %8, i64 24
  store ptr %4, ptr %12, align 8
  %13 = getelementptr inbounds nuw i8, ptr %8, i64 32
  store ptr %5, ptr %13, align 8
  %14 = load ptr, ptr @gssapi_oids, align 8
  %15 = tail call i32 @g_hash_table_insert(ptr noundef %14, ptr noundef %7, ptr noundef %8)
  tail call void @register_ber_oid_dissector_handle(ptr noundef %7, ptr noundef %3, i32 noundef %1, ptr noundef %5)
  ret void
}